target datalayout = "e-m:e-p270:32:32-p271:32:32-p272:64:64-i64:64-i128:128-f80:128-n8:16:32:64-S128"
target triple = "x86_64-pc-linux-gnu"

; Function Attrs: nounwind sspstrong uwtable
define dso_local ptr @safe_malloc_mul_2op_(i64 noundef %0, i64 noundef %1) #0 {
  %3 = alloca ptr, align 8
  %4 = alloca i64, align 8
  %5 = alloca i64, align 8
  store i64 %0, ptr %4, align 8, !tbaa !4
  store i64 %1, ptr %5, align 8, !tbaa !4
  %6 = load i64, ptr %4, align 8, !tbaa !4
  %7 = icmp ne i64 %6, 0
  br i1 %7, label %8, label %11

8:                                                ; preds = %2
  %9 = load i64, ptr %5, align 8, !tbaa !4
  %10 = icmp ne i64 %9, 0
  br i1 %10, label %13, label %11

11:                                               ; preds = %8, %2
  %12 = call noalias ptr @malloc(i64 noundef 1) #2
  store ptr %12, ptr %3, align 8
  br label %24

13:                                               ; preds = %8
  %14 = load i64, ptr %4, align 8, !tbaa !4
  %15 = load i64, ptr %5, align 8, !tbaa !4
  %16 = udiv i64 -1, %15
  %17 = icmp ugt i64 %14, %16
  br i1 %17, label %18, label %19

18:                                               ; preds = %13
  store ptr null, ptr %3, align 8
  br label %24

19:                                               ; preds = %13
  %20 = load i64, ptr %4, align 8, !tbaa !4
  %21 = load i64, ptr %5, align 8, !tbaa !4
  %22 = mul i64 %20, %21
  %23 = call noalias ptr @malloc(i64 noundef %22) #2
  store ptr %23, ptr %3, align 8
  br label %24

24:                                               ; preds = %19, %18, %11
  %25 = load ptr, ptr %3, align 8
  ret ptr %25
}

; Function Attrs: nounwind allocsize(0)
declare noalias ptr @malloc(i64 noundef) #1


!llvm.module.flags = !{!0, !1, !2, !3}

!0 = !{i32 1, !"wchar_size", i32 4}
!1 = !{i32 8, !"PIC Level", i32 2}
!2 = !{i32 7, !"PIE Level", i32 2}
!3 = !{i32 7, !"uwtable", i32 2}
!4 = !{!5, !5, i64 0}
!5 = !{!"long", !6, i64 0}
!6 = !{!"omnipotent char", !7, i64 0}
!7 = !{!"Simple C/C++ TBAA"}
