; ModuleID = 'bench/flac/original/alloc.ll'
source_filename = "bench/flac/original/alloc.ll"
target datalayout = "e-m:e-p270:32:32-p271:32:32-p272:64:64-i64:64-i128:128-f80:128-n8:16:32:64-S128"
target triple = "x86_64-pc-linux-gnu"

; Function Attrs: mustprogress nofree nounwind sspstrong willreturn memory(inaccessiblemem: readwrite) uwtable
define dso_local noalias noundef ptr @safe_malloc_mul_2op_(i64 noundef %0, i64 noundef %1) local_unnamed_addr #0 {
  %3 = icmp ne i64 %0, 0
  %4 = icmp ne i64 %1, 0
  %or.cond = and i1 %3, %4
  br i1 %or.cond, label %5, label %.sink.split

5:                                                ; preds = %2
  %mul = tail call { i64, i1 } @llvm.umul.with.overflow.i64(i64 %1, i64 %0)
  %mul.ov = extractvalue { i64, i1 } %mul, 1
  br i1 %mul.ov, label %9, label %6

6:                                                ; preds = %5
  %7 = mul i64 %1, %0
  br label %.sink.split

.sink.split:                                      ; preds = %2, %6
  %.sink = phi i64 [ %7, %6 ], [ 1, %2 ]
  %8 = tail call noalias ptr @malloc(i64 noundef %.sink) #3
  br label %9

9:                                                ; preds = %.sink.split, %5
  %.0 = phi ptr [ null, %5 ], [ %8, %.sink.split ]
  ret ptr %.0
}

; Function Attrs: mustprogress nofree nounwind willreturn allockind("alloc,uninitialized") allocsize(0) memory(inaccessiblemem: readwrite)
declare noalias noundef ptr @malloc(i64 noundef) local_unnamed_addr #1

; Function Attrs: nocallback nofree nosync nounwind speculatable willreturn memory(none)
declare { i64, i1 } @llvm.umul.with.overflow.i64(i64, i64) #2


!llvm.module.flags = !{!0, !1, !2, !3}

!0 = !{i32 1, !"wchar_size", i32 4}
!1 = !{i32 8, !"PIC Level", i32 2}
!2 = !{i32 7, !"PIE Level", i32 2}
!3 = !{i32 7, !"uwtable", i32 2}
